target datalayout = "e-m:e-p270:32:32-p271:32:32-p272:64:64-i64:64-i128:128-f80:128-n8:16:32:64-S128"
target triple = "x86_64-pc-linux-gnu"

%struct.SparseMatrix_struct = type { i32, i32, i32, i32, i32, ptr, ptr, ptr, i32, i8, i64 }

@stderr = external global ptr, align 8
@.str = private unnamed_addr constant [58 x i8] c"integer overflow when trying to allocate %zu * %zu bytes\0A\00", align 1
@.str.1 = private unnamed_addr constant [49 x i8] c"out of memory when trying to allocate %zu bytes\0A\00", align 1

; Function Attrs: nounwind uwtable
define internal i64 @size_of_matrix_type(i32 noundef %0) #0 {
  %2 = alloca i32, align 4
  %3 = alloca i64, align 8
  store i32 %0, ptr %2, align 4, !tbaa !17
  call void @llvm.lifetime.start.p0(i64 8, ptr %3) #11
  store i64 0, ptr %3, align 8, !tbaa !52
  %4 = load i32, ptr %2, align 4, !tbaa !17
  switch i32 %4, label %10 [
    i32 1, label %5
    i32 2, label %6
    i32 4, label %7
    i32 8, label %8
    i32 16, label %9
  ]

5:                                                ; preds = %1
  store i64 8, ptr %3, align 8, !tbaa !52
  br label %11

6:                                                ; preds = %1
  store i64 16, ptr %3, align 8, !tbaa !52
  br label %11

7:                                                ; preds = %1
  store i64 4, ptr %3, align 8, !tbaa !52
  br label %11

8:                                                ; preds = %1
  store i64 0, ptr %3, align 8, !tbaa !52
  br label %11

9:                                                ; preds = %1
  store i64 0, ptr %3, align 8, !tbaa !52
  br label %11

10:                                               ; preds = %1
  store i64 0, ptr %3, align 8, !tbaa !52
  br label %11

11:                                               ; preds = %10, %9, %8, %7, %6, %5
  %12 = load i64, ptr %3, align 8, !tbaa !52
  call void @llvm.lifetime.end.p0(i64 8, ptr %3) #11
  ret i64 %12
}

; Function Attrs: inlinehint nounwind uwtable
define internal ptr @gv_calloc(i64 noundef %0, i64 noundef %1) #2 {
  %3 = alloca i64, align 8
  %4 = alloca i64, align 8
  %5 = alloca ptr, align 8
  store i64 %0, ptr %3, align 8, !tbaa !52
  store i64 %1, ptr %4, align 8, !tbaa !52
  %6 = load i64, ptr %3, align 8, !tbaa !52
  %7 = icmp ugt i64 %6, 0
  br i1 %7, label %8, label %18

8:                                                ; preds = %2
  %9 = load i64, ptr %3, align 8, !tbaa !52
  %10 = udiv i64 -1, %9
  %11 = load i64, ptr %4, align 8, !tbaa !52
  %12 = icmp ult i64 %10, %11
  br i1 %12, label %13, label %18

13:                                               ; preds = %8
  %14 = load ptr, ptr @stderr, align 8, !tbaa !85
  %15 = load i64, ptr %3, align 8, !tbaa !52
  %16 = load i64, ptr %4, align 8, !tbaa !52
  %17 = call i32 (ptr, ptr, ...) @fprintf(ptr noundef %14, ptr noundef @.str, i64 noundef %15, i64 noundef %16) #11
  call void @graphviz_exit(i32 noundef 1) #12
  unreachable

18:                                               ; preds = %8, %2
  call void @llvm.lifetime.start.p0(i64 8, ptr %5) #11
  %19 = load i64, ptr %3, align 8, !tbaa !52
  %20 = load i64, ptr %4, align 8, !tbaa !52
  %21 = call noalias ptr @calloc(i64 noundef %19, i64 noundef %20) #13
  store ptr %21, ptr %5, align 8, !tbaa !87
  %22 = load i64, ptr %3, align 8, !tbaa !52
  %23 = icmp ugt i64 %22, 0
  br i1 %23, label %24, label %36

24:                                               ; preds = %18
  %25 = load i64, ptr %4, align 8, !tbaa !52
  %26 = icmp ugt i64 %25, 0
  br i1 %26, label %27, label %36

27:                                               ; preds = %24
  %28 = load ptr, ptr %5, align 8, !tbaa !87
  %29 = icmp eq ptr %28, null
  br i1 %29, label %30, label %36

30:                                               ; preds = %27
  %31 = load ptr, ptr @stderr, align 8, !tbaa !85
  %32 = load i64, ptr %3, align 8, !tbaa !52
  %33 = load i64, ptr %4, align 8, !tbaa !52
  %34 = mul i64 %32, %33
  %35 = call i32 (ptr, ptr, ...) @fprintf(ptr noundef %31, ptr noundef @.str.1, i64 noundef %34) #11
  call void @graphviz_exit(i32 noundef 1) #12
  unreachable

36:                                               ; preds = %27, %24, %18
  %37 = load ptr, ptr %5, align 8, !tbaa !87
  call void @llvm.lifetime.end.p0(i64 8, ptr %5) #11
  ret ptr %37
}

; Function Attrs: nounwind uwtable
define void @SparseMatrix_delete(ptr noundef %0) #0 {
  %2 = alloca ptr, align 8
  store ptr %0, ptr %2, align 8, !tbaa !3
  %3 = load ptr, ptr %2, align 8, !tbaa !3
  %4 = icmp ne ptr %3, null
  br i1 %4, label %6, label %5

5:                                                ; preds = %1
  br label %17

6:                                                ; preds = %1
  %7 = load ptr, ptr %2, align 8, !tbaa !3
  %8 = getelementptr inbounds nuw %struct.SparseMatrix_struct, ptr %7, i32 0, i32 5
  %9 = load ptr, ptr %8, align 8, !tbaa !8
  call void @free(ptr noundef %9) #11
  %10 = load ptr, ptr %2, align 8, !tbaa !3
  %11 = getelementptr inbounds nuw %struct.SparseMatrix_struct, ptr %10, i32 0, i32 6
  %12 = load ptr, ptr %11, align 8, !tbaa !15
  call void @free(ptr noundef %12) #11
  %13 = load ptr, ptr %2, align 8, !tbaa !3
  %14 = getelementptr inbounds nuw %struct.SparseMatrix_struct, ptr %13, i32 0, i32 7
  %15 = load ptr, ptr %14, align 8, !tbaa !27
  call void @free(ptr noundef %15) #11
  %16 = load ptr, ptr %2, align 8, !tbaa !3
  call void @free(ptr noundef %16) #11
  br label %17

17:                                               ; preds = %6, %5
  ret void
}

; Function Attrs: nounwind uwtable
define ptr @SparseMatrix_new(i32 noundef %0, i32 noundef %1, i32 noundef %2, i32 noundef %3, i32 noundef %4) #0 {
  %6 = alloca i32, align 4
  %7 = alloca i32, align 4
  %8 = alloca i32, align 4
  %9 = alloca i32, align 4
  %10 = alloca i32, align 4
  %11 = alloca ptr, align 8
  %12 = alloca i64, align 8
  store i32 %0, ptr %6, align 4, !tbaa !17
  store i32 %1, ptr %7, align 4, !tbaa !17
  store i32 %2, ptr %8, align 4, !tbaa !17
  store i32 %3, ptr %9, align 4, !tbaa !17
  store i32 %4, ptr %10, align 4, !tbaa !17
  call void @llvm.lifetime.start.p0(i64 8, ptr %11) #11
  call void @llvm.lifetime.start.p0(i64 8, ptr %12) #11
  %13 = load i32, ptr %9, align 4, !tbaa !17
  %14 = call i64 @size_of_matrix_type(i32 noundef %13)
  store i64 %14, ptr %12, align 8, !tbaa !52
  %15 = load i32, ptr %6, align 4, !tbaa !17
  %16 = load i32, ptr %7, align 4, !tbaa !17
  %17 = load i32, ptr %9, align 4, !tbaa !17
  %18 = load i64, ptr %12, align 8, !tbaa !52
  %19 = load i32, ptr %10, align 4, !tbaa !17
  %20 = call ptr @SparseMatrix_init(i32 noundef %15, i32 noundef %16, i32 noundef %17, i64 noundef %18, i32 noundef %19)
  store ptr %20, ptr %11, align 8, !tbaa !3
  %21 = load i32, ptr %8, align 4, !tbaa !17
  %22 = icmp sgt i32 %21, 0
  br i1 %22, label %23, label %27

23:                                               ; preds = %5
  %24 = load ptr, ptr %11, align 8, !tbaa !3
  %25 = load i32, ptr %8, align 4, !tbaa !17
  %26 = call ptr @SparseMatrix_alloc(ptr noundef %24, i32 noundef %25)
  store ptr %26, ptr %11, align 8, !tbaa !3
  br label %27

27:                                               ; preds = %23, %5
  %28 = load ptr, ptr %11, align 8, !tbaa !3
  call void @llvm.lifetime.end.p0(i64 8, ptr %12) #11
  call void @llvm.lifetime.end.p0(i64 8, ptr %11) #11
  ret ptr %28
}

; Function Attrs: nounwind uwtable
define ptr @SparseMatrix_get_real_adjacency_matrix_symmetrized(ptr noundef %0) #0 {
  %2 = alloca ptr, align 8
  %3 = alloca ptr, align 8
  %4 = alloca i32, align 4
  %5 = alloca ptr, align 8
  %6 = alloca ptr, align 8
  %7 = alloca i32, align 4
  %8 = alloca i32, align 4
  %9 = alloca i32, align 4
  %10 = alloca ptr, align 8
  %11 = alloca ptr, align 8
  %12 = alloca i32, align 4
  store ptr %0, ptr %3, align 8, !tbaa !3
  call void @llvm.lifetime.start.p0(i64 4, ptr %4) #11
  call void @llvm.lifetime.start.p0(i64 8, ptr %5) #11
  call void @llvm.lifetime.start.p0(i64 8, ptr %6) #11
  call void @llvm.lifetime.start.p0(i64 4, ptr %7) #11
  call void @llvm.lifetime.start.p0(i64 4, ptr %8) #11
  call void @llvm.lifetime.start.p0(i64 4, ptr %9) #11
  call void @llvm.lifetime.start.p0(i64 8, ptr %10) #11
  call void @llvm.lifetime.start.p0(i64 8, ptr %11) #11
  %13 = load ptr, ptr %3, align 8, !tbaa !3
  %14 = icmp ne ptr %13, null
  br i1 %14, label %17, label %15

15:                                               ; preds = %1
  %16 = load ptr, ptr %3, align 8, !tbaa !3
  store ptr %16, ptr %2, align 8
  store i32 1, ptr %12, align 4
  br label %97

17:                                               ; preds = %1
  %18 = load ptr, ptr %3, align 8, !tbaa !3
  %19 = getelementptr inbounds nuw %struct.SparseMatrix_struct, ptr %18, i32 0, i32 2
  %20 = load i32, ptr %19, align 8, !tbaa !16
  store i32 %20, ptr %7, align 4, !tbaa !17
  %21 = load ptr, ptr %3, align 8, !tbaa !3
  %22 = getelementptr inbounds nuw %struct.SparseMatrix_struct, ptr %21, i32 0, i32 5
  %23 = load ptr, ptr %22, align 8, !tbaa !8
  store ptr %23, ptr %5, align 8, !tbaa !14
  %24 = load ptr, ptr %3, align 8, !tbaa !3
  %25 = getelementptr inbounds nuw %struct.SparseMatrix_struct, ptr %24, i32 0, i32 6
  %26 = load ptr, ptr %25, align 8, !tbaa !15
  store ptr %26, ptr %6, align 8, !tbaa !14
  %27 = load ptr, ptr %3, align 8, !tbaa !3
  %28 = getelementptr inbounds nuw %struct.SparseMatrix_struct, ptr %27, i32 0, i32 1
  %29 = load i32, ptr %28, align 4, !tbaa !19
  store i32 %29, ptr %9, align 4, !tbaa !17
  %30 = load ptr, ptr %3, align 8, !tbaa !3
  %31 = getelementptr inbounds nuw %struct.SparseMatrix_struct, ptr %30, i32 0, i32 0
  %32 = load i32, ptr %31, align 8, !tbaa !18
  store i32 %32, ptr %8, align 4, !tbaa !17
  %33 = load i32, ptr %9, align 4, !tbaa !17
  %34 = load i32, ptr %8, align 4, !tbaa !17
  %35 = icmp ne i32 %33, %34
  br i1 %35, label %36, label %37

36:                                               ; preds = %17
  store ptr null, ptr %2, align 8
  store i32 1, ptr %12, align 4
  br label %97

37:                                               ; preds = %17
  %38 = load i32, ptr %8, align 4, !tbaa !17
  %39 = load i32, ptr %9, align 4, !tbaa !17
  %40 = load i32, ptr %7, align 4, !tbaa !17
  %41 = call ptr @SparseMatrix_new(i32 noundef %38, i32 noundef %39, i32 noundef %40, i32 noundef 8, i32 noundef 0)
  store ptr %41, ptr %11, align 8, !tbaa !3
  %42 = load ptr, ptr %11, align 8, !tbaa !3
  %43 = getelementptr inbounds nuw %struct.SparseMatrix_struct, ptr %42, i32 0, i32 5
  %44 = load ptr, ptr %43, align 8, !tbaa !8
  %45 = load ptr, ptr %5, align 8, !tbaa !14
  %46 = load i32, ptr %8, align 4, !tbaa !17
  %47 = add nsw i32 %46, 1
  %48 = sext i32 %47 to i64
  %49 = mul i64 4, %48
  call void @llvm.memcpy.p0.p0.i64(ptr align 4 %44, ptr align 4 %45, i64 %49, i1 false)
  %50 = load ptr, ptr %11, align 8, !tbaa !3
  %51 = getelementptr inbounds nuw %struct.SparseMatrix_struct, ptr %50, i32 0, i32 6
  %52 = load ptr, ptr %51, align 8, !tbaa !15
  %53 = load ptr, ptr %6, align 8, !tbaa !14
  %54 = load i32, ptr %7, align 4, !tbaa !17
  %55 = sext i32 %54 to i64
  %56 = mul i64 4, %55
  call void @llvm.memcpy.p0.p0.i64(ptr align 4 %52, ptr align 4 %53, i64 %56, i1 false)
  %57 = load ptr, ptr %3, align 8, !tbaa !3
  %58 = getelementptr inbounds nuw %struct.SparseMatrix_struct, ptr %57, i32 0, i32 2
  %59 = load i32, ptr %58, align 8, !tbaa !16
  %60 = load ptr, ptr %11, align 8, !tbaa !3
  %61 = getelementptr inbounds nuw %struct.SparseMatrix_struct, ptr %60, i32 0, i32 2
  store i32 %59, ptr %61, align 8, !tbaa !16
  %62 = load ptr, ptr %11, align 8, !tbaa !3
  %63 = call ptr @SparseMatrix_symmetrize(ptr noundef %62, i1 noundef zeroext true)
  store ptr %63, ptr %3, align 8, !tbaa !3
  %64 = load ptr, ptr %11, align 8, !tbaa !3
  call void @SparseMatrix_delete(ptr noundef %64)
  %65 = load ptr, ptr %3, align 8, !tbaa !3
  %66 = call ptr @SparseMatrix_remove_diagonal(ptr noundef %65)
  store ptr %66, ptr %3, align 8, !tbaa !3
  %67 = load ptr, ptr %3, align 8, !tbaa !3
  %68 = getelementptr inbounds nuw %struct.SparseMatrix_struct, ptr %67, i32 0, i32 2
  %69 = load i32, ptr %68, align 8, !tbaa !16
  %70 = sext i32 %69 to i64
  %71 = call ptr @gv_calloc(i64 noundef %70, i64 noundef 8)
  %72 = load ptr, ptr %3, align 8, !tbaa !3
  %73 = getelementptr inbounds nuw %struct.SparseMatrix_struct, ptr %72, i32 0, i32 7
  store ptr %71, ptr %73, align 8, !tbaa !27
  %74 = load ptr, ptr %3, align 8, !tbaa !3
  %75 = getelementptr inbounds nuw %struct.SparseMatrix_struct, ptr %74, i32 0, i32 7
  %76 = load ptr, ptr %75, align 8, !tbaa !27
  store ptr %76, ptr %10, align 8, !tbaa !28
  store i32 0, ptr %4, align 4, !tbaa !17
  br label %77

77:                                               ; preds = %88, %37
  %78 = load i32, ptr %4, align 4, !tbaa !17
  %79 = load ptr, ptr %3, align 8, !tbaa !3
  %80 = getelementptr inbounds nuw %struct.SparseMatrix_struct, ptr %79, i32 0, i32 2
  %81 = load i32, ptr %80, align 8, !tbaa !16
  %82 = icmp slt i32 %78, %81
  br i1 %82, label %83, label %91

83:                                               ; preds = %77
  %84 = load ptr, ptr %10, align 8, !tbaa !28
  %85 = load i32, ptr %4, align 4, !tbaa !17
  %86 = sext i32 %85 to i64
  %87 = getelementptr inbounds double, ptr %84, i64 %86
  store double 1.000000e+00, ptr %87, align 8, !tbaa !30
  br label %88

88:                                               ; preds = %83
  %89 = load i32, ptr %4, align 4, !tbaa !17
  %90 = add nsw i32 %89, 1
  store i32 %90, ptr %4, align 4, !tbaa !17
  br label %77, !llvm.loop !182

91:                                               ; preds = %77
  %92 = load ptr, ptr %3, align 8, !tbaa !3
  %93 = getelementptr inbounds nuw %struct.SparseMatrix_struct, ptr %92, i32 0, i32 4
  store i32 1, ptr %93, align 8, !tbaa !20
  %94 = load ptr, ptr %3, align 8, !tbaa !3
  %95 = getelementptr inbounds nuw %struct.SparseMatrix_struct, ptr %94, i32 0, i32 10
  store i64 8, ptr %95, align 8, !tbaa !71
  %96 = load ptr, ptr %3, align 8, !tbaa !3
  store ptr %96, ptr %2, align 8
  store i32 1, ptr %12, align 4
  br label %97

97:                                               ; preds = %91, %36, %15
  call void @llvm.lifetime.end.p0(i64 8, ptr %11) #11
  call void @llvm.lifetime.end.p0(i64 8, ptr %10) #11
  call void @llvm.lifetime.end.p0(i64 4, ptr %9) #11
  call void @llvm.lifetime.end.p0(i64 4, ptr %8) #11
  call void @llvm.lifetime.end.p0(i64 4, ptr %7) #11
  call void @llvm.lifetime.end.p0(i64 8, ptr %6) #11
  call void @llvm.lifetime.end.p0(i64 8, ptr %5) #11
  call void @llvm.lifetime.end.p0(i64 4, ptr %4) #11
  %98 = load ptr, ptr %2, align 8
  ret ptr %98
}