; Function Attrs: nounwind uwtable
define noundef ptr @SparseMatrix_get_real_adjacency_matrix_symmetrized(ptr noundef readonly captures(address_is_null) %0) local_unnamed_addr #0 {
  %.not = icmp eq ptr %0, null
  br i1 %.not, label %54, label %2

2:                                                ; preds = %1
  %3 = getelementptr inbounds nuw i8, ptr %0, i64 4
  %4 = load i32, ptr %3, align 4, !tbaa !16
  %5 = load i32, ptr %0, align 8, !tbaa !15
  %.not38 = icmp eq i32 %4, %5
  br i1 %.not38, label %6, label %54

6:                                                ; preds = %2
  %7 = getelementptr inbounds nuw i8, ptr %0, i64 32
  %8 = load ptr, ptr %7, align 8, !tbaa !12
  %9 = getelementptr inbounds nuw i8, ptr %0, i64 24
  %10 = load ptr, ptr %9, align 8, !tbaa !3
  %11 = getelementptr inbounds nuw i8, ptr %0, i64 8
  %12 = load i32, ptr %11, align 8, !tbaa !14
  %13 = tail call fastcc ptr @SparseMatrix_init(i32 noundef %4, i32 noundef %4, i32 noundef 8, i64 noundef 0, i32 noundef 0)
  %14 = icmp sgt i32 %12, 0
  br i1 %14, label %15, label %SparseMatrix_delete.exit

15:                                               ; preds = %6
  %16 = tail call fastcc ptr @SparseMatrix_alloc(ptr noundef %13, i32 noundef %12)
  br label %SparseMatrix_delete.exit

SparseMatrix_delete.exit:                         ; preds = %6, %15
  %17 = getelementptr inbounds nuw i8, ptr %13, i64 24
  %18 = load ptr, ptr %17, align 8, !tbaa !3
  %19 = add nsw i32 %4, 1
  %20 = sext i32 %19 to i64
  %21 = shl nsw i64 %20, 2
  tail call void @llvm.memcpy.p0.p0.i64(ptr align 4 %18, ptr align 4 %10, i64 %21, i1 false)
  %22 = getelementptr inbounds nuw i8, ptr %13, i64 32
  %23 = load ptr, ptr %22, align 8, !tbaa !12
  %24 = sext i32 %12 to i64
  %25 = shl nsw i64 %24, 2
  tail call void @llvm.memcpy.p0.p0.i64(ptr align 4 %23, ptr align 4 %8, i64 %25, i1 false)
  %26 = load i32, ptr %11, align 8, !tbaa !14
  %27 = getelementptr inbounds nuw i8, ptr %13, i64 8
  store i32 %26, ptr %27, align 8, !tbaa !14
  %28 = tail call ptr @SparseMatrix_symmetrize(ptr noundef %13, i1 noundef zeroext true)
  %29 = load ptr, ptr %17, align 8, !tbaa !3
  tail call void @free(ptr noundef %29) #17
  %30 = load ptr, ptr %22, align 8, !tbaa !12
  tail call void @free(ptr noundef %30) #17
  %31 = getelementptr inbounds nuw i8, ptr %13, i64 40
  %32 = load ptr, ptr %31, align 8, !tbaa !13
  tail call void @free(ptr noundef %32) #17
  tail call void @free(ptr noundef nonnull %13) #17
  %33 = tail call ptr @SparseMatrix_remove_diagonal(ptr noundef %28)
  %34 = getelementptr inbounds nuw i8, ptr %33, i64 8
  %35 = load i32, ptr %34, align 8, !tbaa !14
  %36 = sext i32 %35 to i64
  %.not40 = icmp eq i32 %35, 0
  br i1 %.not40, label %gv_calloc.exit, label %37

37:                                               ; preds = %SparseMatrix_delete.exit
  %mul.ov.i = icmp slt i32 %35, 0
  br i1 %mul.ov.i, label %38, label %41

38:                                               ; preds = %37
  %39 = load ptr, ptr @stderr, align 8, !tbaa !43
  %40 = tail call i32 (ptr, ptr, ...) @fprintf(ptr noundef %39, ptr noundef nonnull @.str, i64 noundef range(i64 -4294967296, 4294967295) %36, i64 noundef 8) #18
  tail call fastcc void @graphviz_exit() #19
  unreachable

41:                                               ; preds = %37
  %42 = tail call noalias ptr @calloc(i64 noundef range(i64 -4294967296, 4294967295) %36, i64 noundef 8) #20
  %43 = icmp eq ptr %42, null
  br i1 %43, label %44, label %.lr.ph.preheader

44:                                               ; preds = %41
  %45 = load ptr, ptr @stderr, align 8, !tbaa !43
  %46 = shl nuw nsw i64 %36, 3
  %47 = tail call i32 (ptr, ptr, ...) @fprintf(ptr noundef %45, ptr noundef nonnull @.str.1, i64 noundef %46) #18
  tail call fastcc void @graphviz_exit() #19
  unreachable

gv_calloc.exit:                                   ; preds = %SparseMatrix_delete.exit
  %48 = tail call noalias ptr @calloc(i64 noundef range(i64 -4294967296, 4294967295) %36, i64 noundef 8) #20
  %49 = getelementptr inbounds nuw i8, ptr %33, i64 40
  store ptr %48, ptr %49, align 8, !tbaa !13
  br label %._crit_edge

.lr.ph.preheader:                                 ; preds = %41
  %50 = getelementptr inbounds nuw i8, ptr %33, i64 40
  store ptr %42, ptr %50, align 8, !tbaa !13
  %wide.trip.count = zext nneg i32 %35 to i64
  br label %.lr.ph

.lr.ph:                                           ; preds = %.lr.ph.preheader, %.lr.ph
  %indvars.iv = phi i64 [ 0, %.lr.ph.preheader ], [ %indvars.iv.next, %.lr.ph ]
  %51 = getelementptr inbounds nuw double, ptr %42, i64 %indvars.iv
  store double 1.000000e+00, ptr %51, align 8, !tbaa !25
  %indvars.iv.next = add nuw nsw i64 %indvars.iv, 1
  %exitcond.not = icmp eq i64 %indvars.iv.next, %wide.trip.count
  br i1 %exitcond.not, label %._crit_edge, label %.lr.ph, !llvm.loop !164

._crit_edge:                                      ; preds = %.lr.ph, %gv_calloc.exit
  %52 = getelementptr inbounds nuw i8, ptr %33, i64 16
  store i32 1, ptr %52, align 8, !tbaa !17
  %53 = getelementptr inbounds nuw i8, ptr %33, i64 56
  store i64 8, ptr %53, align 8, !tbaa !62
  br label %54

54:                                               ; preds = %2, %1, %._crit_edge
  %.0 = phi ptr [ %33, %._crit_edge ], [ null, %1 ], [ null, %2 ]
  ret ptr %.0
}